; Function Attrs: mustprogress nofree norecurse nosync nounwind sspstrong willreturn memory(argmem: read) uwtable
define internal range(i32 -2147483647, -2147483648) i32 @mbc_enc_len(ptr noundef readonly captures(address) %0, ptr noundef readnone captures(address) %1, ptr readnone captures(none) %2) #2 {
  %4 = getelementptr inbounds nuw i8, ptr %0, i64 1
  %5 = load i8, ptr %0, align 1, !tbaa !6
  %6 = zext i8 %5 to i64
  %7 = getelementptr inbounds nuw [256 x i8], ptr @trans, i64 0, i64 %6
  %8 = load i8, ptr %7, align 1, !tbaa !6
  %9 = sext i8 %8 to i64
  %10 = icmp slt i8 %8, 0
  br i1 %10, label %11, label %14

11:                                               ; preds = %3
  %12 = icmp eq i8 %8, -1
  %13 = select i1 %12, i32 1, i32 -1
  br label %27

14:                                               ; preds = %3
  %15 = icmp eq ptr %4, %1
  br i1 %15, label %16, label %20

16:                                               ; preds = %14
  %17 = getelementptr inbounds nuw [256 x i32], ptr @EncLen_SJIS, i64 0, i64 %6
  %18 = load i32, ptr %17, align 4, !tbaa !9
  %19 = sub nsw i32 0, %18
  br label %27

20:                                               ; preds = %14
  %21 = load i8, ptr %4, align 1, !tbaa !6
  %22 = zext i8 %21 to i64
  %23 = getelementptr inbounds nuw [2 x [256 x i8]], ptr @trans, i64 0, i64 %9, i64 %22
  %24 = load i8, ptr %23, align 1, !tbaa !6
  %25 = icmp eq i8 %24, -1
  %26 = select i1 %25, i32 2, i32 -1
  br label %27

27:                                               ; preds = %20, %16, %11
  %.0 = phi i32 [ %13, %11 ], [ %19, %16 ], [ %26, %20 ]
  ret i32 %.0
}